target datalayout = "e-m:e-p270:32:32-p271:32:32-p272:64:64-i64:64-i128:128-f80:128-n8:16:32:64-S128"
target triple = "x86_64-pc-linux-gnu"

%"class.base::SharedMemory" = type { i32, i32, i64, ptr, i8, i64 }
%"struct.base::FileDescriptor" = type <{ i32, i8, [3 x i8] }>

; Function Attrs: mustprogress nounwind uwtable
define void @_ZN4base12SharedMemoryC2ERKNS_14FileDescriptorEb(ptr noundef nonnull align 8 dereferenceable(40) %0, ptr noundef nonnull align 4 dereferenceable(5) %1, i1 noundef zeroext %2) unnamed_addr #0 align 2 {
  %4 = alloca ptr, align 8
  %5 = alloca ptr, align 8
  %6 = alloca i8, align 1
  store ptr %0, ptr %4, align 8, !tbaa !17
  store ptr %1, ptr %5, align 8, !tbaa !27
  %7 = zext i1 %2 to i8
  store i8 %7, ptr %6, align 1, !tbaa !29
  %8 = load ptr, ptr %4, align 8
  %9 = getelementptr inbounds nuw %"class.base::SharedMemory", ptr %8, i32 0, i32 0
  %10 = load ptr, ptr %5, align 8, !tbaa !27
  %11 = getelementptr inbounds nuw %"struct.base::FileDescriptor", ptr %10, i32 0, i32 0
  %12 = load i32, ptr %11, align 4, !tbaa !30
  store i32 %12, ptr %9, align 8, !tbaa !19
  %13 = getelementptr inbounds nuw %"class.base::SharedMemory", ptr %8, i32 0, i32 1
  store i32 -1, ptr %13, align 4, !tbaa !22
  %14 = getelementptr inbounds nuw %"class.base::SharedMemory", ptr %8, i32 0, i32 2
  store i64 0, ptr %14, align 8, !tbaa !23
  %15 = getelementptr inbounds nuw %"class.base::SharedMemory", ptr %8, i32 0, i32 3
  store ptr null, ptr %15, align 8, !tbaa !24
  %16 = getelementptr inbounds nuw %"class.base::SharedMemory", ptr %8, i32 0, i32 4
  %17 = load i8, ptr %6, align 1, !tbaa !29, !range !32, !noundef !33
  %18 = trunc i8 %17 to i1
  %19 = zext i1 %18 to i8
  store i8 %19, ptr %16, align 8, !tbaa !25
  %20 = getelementptr inbounds nuw %"class.base::SharedMemory", ptr %8, i32 0, i32 5
  store i64 0, ptr %20, align 8, !tbaa !26
  ret void
}