; Function Attrs: mustprogress nofree norecurse nosync nounwind willreturn memory(argmem: readwrite) uwtable
define void @_ZN4base12SharedMemoryC2ERKNS_14FileDescriptorEb(ptr noundef nonnull writeonly align 8 captures(none) dereferenceable(40) initializes((0, 25), (32, 40)) %0, ptr noundef nonnull readonly align 4 captures(none) dereferenceable(5) %1, i1 noundef zeroext %2) unnamed_addr #1 align 2 {
  %4 = zext i1 %2 to i8
  %5 = load i32, ptr %1, align 4, !tbaa !20
  store i32 %5, ptr %0, align 8, !tbaa !15
  %6 = getelementptr inbounds nuw i8, ptr %0, i64 4
  store i32 -1, ptr %6, align 4, !tbaa !18
  %7 = getelementptr inbounds nuw i8, ptr %0, i64 8
  %8 = getelementptr inbounds nuw i8, ptr %0, i64 24
  tail call void @llvm.memset.p0.i64(ptr noundef nonnull align 8 dereferenceable(16) %7, i8 0, i64 16, i1 false)
  store i8 %4, ptr %8, align 8, !tbaa !22
  %9 = getelementptr inbounds nuw i8, ptr %0, i64 32
  store i64 0, ptr %9, align 8, !tbaa !19
  ret void
}